target datalayout = "e-m:e-p270:32:32-p271:32:32-p272:64:64-i64:64-i128:128-f80:128-n8:16:32:64-S128"
target triple = "x86_64-pc-linux-gnu"

%struct.luaL_Buffer = type { ptr, i32, ptr, [8192 x i8] }

@.str.18 = private unnamed_addr constant [7 x i8] c"%s: %s\00", align 1
@.str.19 = private unnamed_addr constant [3 x i8] c"%s\00", align 1
@.str.21 = private unnamed_addr constant [19 x i8] c"too many arguments\00", align 1
@.str.22 = private unnamed_addr constant [15 x i8] c"invalid option\00", align 1
@.str.23 = private unnamed_addr constant [15 x i8] c"invalid format\00", align 1
@.str.24 = private unnamed_addr constant [4 x i8] c"%lf\00", align 1

; Function Attrs: nounwind uwtable
define internal i32 @pushresult(ptr noundef %0, i32 noundef %1, ptr noundef %2) #0 {
  %4 = alloca i32, align 4
  %5 = alloca ptr, align 8
  %6 = alloca i32, align 4
  %7 = alloca ptr, align 8
  %8 = alloca i32, align 4
  %9 = alloca i32, align 4
  store ptr %0, ptr %5, align 8, !tbaa !4
  store i32 %1, ptr %6, align 4, !tbaa !14
  store ptr %2, ptr %7, align 8, !tbaa !16
  call void @llvm.lifetime.start.p0(i64 4, ptr %8) #6
  %10 = call ptr @__errno_location() #7
  %11 = load i32, ptr %10, align 4, !tbaa !14
  store i32 %11, ptr %8, align 4, !tbaa !14
  %12 = load i32, ptr %6, align 4, !tbaa !14
  %13 = icmp ne i32 %12, 0
  br i1 %13, label %14, label %16

14:                                               ; preds = %3
  %15 = load ptr, ptr %5, align 8, !tbaa !4
  call void @lua_pushboolean(ptr noundef %15, i32 noundef 1)
  store i32 1, ptr %4, align 4
  store i32 1, ptr %9, align 4
  br label %35

16:                                               ; preds = %3
  %17 = load ptr, ptr %5, align 8, !tbaa !4
  call void @lua_pushnil(ptr noundef %17)
  %18 = load ptr, ptr %7, align 8, !tbaa !16
  %19 = icmp ne ptr %18, null
  br i1 %19, label %20, label %26

20:                                               ; preds = %16
  %21 = load ptr, ptr %5, align 8, !tbaa !4
  %22 = load ptr, ptr %7, align 8, !tbaa !16
  %23 = load i32, ptr %8, align 4, !tbaa !14
  %24 = call ptr @strerror(i32 noundef %23) #6
  %25 = call ptr (ptr, ptr, ...) @lua_pushfstring(ptr noundef %21, ptr noundef @.str.18, ptr noundef %22, ptr noundef %24)
  br label %31

26:                                               ; preds = %16
  %27 = load ptr, ptr %5, align 8, !tbaa !4
  %28 = load i32, ptr %8, align 4, !tbaa !14
  %29 = call ptr @strerror(i32 noundef %28) #6
  %30 = call ptr (ptr, ptr, ...) @lua_pushfstring(ptr noundef %27, ptr noundef @.str.19, ptr noundef %29)
  br label %31

31:                                               ; preds = %26, %20
  %32 = load ptr, ptr %5, align 8, !tbaa !4
  %33 = load i32, ptr %8, align 4, !tbaa !14
  %34 = sext i32 %33 to i64
  call void @lua_pushinteger(ptr noundef %32, i64 noundef %34)
  store i32 3, ptr %4, align 4
  store i32 1, ptr %9, align 4
  br label %35

35:                                               ; preds = %31, %14
  call void @llvm.lifetime.end.p0(i64 4, ptr %8) #6
  %36 = load i32, ptr %4, align 4
  ret i32 %36
}

; Function Attrs: nounwind uwtable
define internal i32 @read_number(ptr noundef %0, ptr noundef %1) #0 {
  %3 = alloca i32, align 4
  %4 = alloca ptr, align 8
  %5 = alloca ptr, align 8
  %6 = alloca double, align 8
  %7 = alloca i32, align 4
  store ptr %0, ptr %4, align 8, !tbaa !4
  store ptr %1, ptr %5, align 8, !tbaa !9
  call void @llvm.lifetime.start.p0(i64 8, ptr %6) #6
  %8 = load ptr, ptr %5, align 8, !tbaa !9
  %9 = call i32 (ptr, ptr, ...) @__isoc99_fscanf(ptr noundef %8, ptr noundef @.str.24, ptr noundef %6)
  %10 = icmp eq i32 %9, 1
  br i1 %10, label %11, label %14

11:                                               ; preds = %2
  %12 = load ptr, ptr %4, align 8, !tbaa !4
  %13 = load double, ptr %6, align 8, !tbaa !26
  call void @lua_pushnumber(ptr noundef %12, double noundef %13)
  store i32 1, ptr %3, align 4
  store i32 1, ptr %7, align 4
  br label %16

14:                                               ; preds = %2
  %15 = load ptr, ptr %4, align 8, !tbaa !4
  call void @lua_pushnil(ptr noundef %15)
  store i32 0, ptr %3, align 4
  store i32 1, ptr %7, align 4
  br label %16

16:                                               ; preds = %14, %11
  call void @llvm.lifetime.end.p0(i64 8, ptr %6) #6
  %17 = load i32, ptr %3, align 4
  ret i32 %17
}

; Function Attrs: nounwind uwtable
define internal i32 @read_chars(ptr noundef %0, ptr noundef %1, i64 noundef %2) #0 {
  %4 = alloca ptr, align 8
  %5 = alloca ptr, align 8
  %6 = alloca i64, align 8
  %7 = alloca i64, align 8
  %8 = alloca i64, align 8
  %9 = alloca %struct.luaL_Buffer, align 8
  %10 = alloca ptr, align 8
  store ptr %0, ptr %4, align 8, !tbaa !4
  store ptr %1, ptr %5, align 8, !tbaa !9
  store i64 %2, ptr %6, align 8, !tbaa !18
  call void @llvm.lifetime.start.p0(i64 8, ptr %7) #6
  call void @llvm.lifetime.start.p0(i64 8, ptr %8) #6
  call void @llvm.lifetime.start.p0(i64 8216, ptr %9) #6
  %11 = load ptr, ptr %4, align 8, !tbaa !4
  call void @luaL_buffinit(ptr noundef %11, ptr noundef %9)
  store i64 8192, ptr %7, align 8, !tbaa !18
  br label %12

12:                                               ; preds = %38, %3
  call void @llvm.lifetime.start.p0(i64 8, ptr %10) #6
  %13 = call ptr @luaL_prepbuffer(ptr noundef %9)
  store ptr %13, ptr %10, align 8, !tbaa !16
  %14 = load i64, ptr %7, align 8, !tbaa !18
  %15 = load i64, ptr %6, align 8, !tbaa !18
  %16 = icmp ugt i64 %14, %15
  br i1 %16, label %17, label %19

17:                                               ; preds = %12
  %18 = load i64, ptr %6, align 8, !tbaa !18
  store i64 %18, ptr %7, align 8, !tbaa !18
  br label %19

19:                                               ; preds = %17, %12
  %20 = load ptr, ptr %10, align 8, !tbaa !16
  %21 = load i64, ptr %7, align 8, !tbaa !18
  %22 = load ptr, ptr %5, align 8, !tbaa !9
  %23 = call i64 @fread(ptr noundef %20, i64 noundef 1, i64 noundef %21, ptr noundef %22)
  store i64 %23, ptr %8, align 8, !tbaa !18
  %24 = load i64, ptr %8, align 8, !tbaa !18
  %25 = getelementptr inbounds nuw %struct.luaL_Buffer, ptr %9, i32 0, i32 0
  %26 = load ptr, ptr %25, align 8, !tbaa !21
  %27 = getelementptr inbounds nuw i8, ptr %26, i64 %24
  store ptr %27, ptr %25, align 8, !tbaa !21
  %28 = load i64, ptr %8, align 8, !tbaa !18
  %29 = load i64, ptr %6, align 8, !tbaa !18
  %30 = sub i64 %29, %28
  store i64 %30, ptr %6, align 8, !tbaa !18
  call void @llvm.lifetime.end.p0(i64 8, ptr %10) #6
  br label %31

31:                                               ; preds = %19
  %32 = load i64, ptr %6, align 8, !tbaa !18
  %33 = icmp ugt i64 %32, 0
  br i1 %33, label %34, label %38

34:                                               ; preds = %31
  %35 = load i64, ptr %8, align 8, !tbaa !18
  %36 = load i64, ptr %7, align 8, !tbaa !18
  %37 = icmp eq i64 %35, %36
  br label %38

38:                                               ; preds = %34, %31
  %39 = phi i1 [ false, %31 ], [ %37, %34 ]
  br i1 %39, label %12, label %40, !llvm.loop !25

40:                                               ; preds = %38
  call void @luaL_pushresult(ptr noundef %9)
  %41 = load i64, ptr %6, align 8, !tbaa !18
  %42 = icmp eq i64 %41, 0
  br i1 %42, label %47, label %43

43:                                               ; preds = %40
  %44 = load ptr, ptr %4, align 8, !tbaa !4
  %45 = call i64 @lua_objlen(ptr noundef %44, i32 noundef -1)
  %46 = icmp ugt i64 %45, 0
  br label %47

47:                                               ; preds = %43, %40
  %48 = phi i1 [ true, %40 ], [ %46, %43 ]
  %49 = zext i1 %48 to i32
  call void @llvm.lifetime.end.p0(i64 8216, ptr %9) #6
  call void @llvm.lifetime.end.p0(i64 8, ptr %8) #6
  call void @llvm.lifetime.end.p0(i64 8, ptr %7) #6
  ret i32 %49
}

; Function Attrs: nounwind uwtable
define internal i32 @test_eof(ptr noundef %0, ptr noundef %1) #0 {
  %3 = alloca ptr, align 8
  %4 = alloca ptr, align 8
  %5 = alloca i32, align 4
  store ptr %0, ptr %3, align 8, !tbaa !4
  store ptr %1, ptr %4, align 8, !tbaa !9
  call void @llvm.lifetime.start.p0(i64 4, ptr %5) #6
  %6 = load ptr, ptr %4, align 8, !tbaa !9
  %7 = call i32 @getc(ptr noundef %6)
  store i32 %7, ptr %5, align 4, !tbaa !14
  %8 = load i32, ptr %5, align 4, !tbaa !14
  %9 = load ptr, ptr %4, align 8, !tbaa !9
  %10 = call i32 @ungetc(i32 noundef %8, ptr noundef %9)
  %11 = load ptr, ptr %3, align 8, !tbaa !4
  call void @lua_pushlstring(ptr noundef %11, ptr noundef null, i64 noundef 0)
  %12 = load i32, ptr %5, align 4, !tbaa !14
  %13 = icmp ne i32 %12, -1
  %14 = zext i1 %13 to i32
  call void @llvm.lifetime.end.p0(i64 4, ptr %5) #6
  ret i32 %14
}

; Function Attrs: nounwind uwtable
define internal i32 @g_read(ptr noundef %0, ptr noundef %1, i32 noundef %2) #0 {
  %4 = alloca i32, align 4
  %5 = alloca ptr, align 8
  %6 = alloca ptr, align 8
  %7 = alloca i32, align 4
  %8 = alloca i32, align 4
  %9 = alloca i32, align 4
  %10 = alloca i32, align 4
  %11 = alloca i64, align 8
  %12 = alloca ptr, align 8
  %13 = alloca i32, align 4
  store ptr %0, ptr %5, align 8, !tbaa !4
  store ptr %1, ptr %6, align 8, !tbaa !9
  store i32 %2, ptr %7, align 4, !tbaa !14
  call void @llvm.lifetime.start.p0(i64 4, ptr %8) #6
  %14 = load ptr, ptr %5, align 8, !tbaa !4
  %15 = call i32 @lua_gettop(ptr noundef %14)
  %16 = sub nsw i32 %15, 1
  store i32 %16, ptr %8, align 4, !tbaa !14
  call void @llvm.lifetime.start.p0(i64 4, ptr %9) #6
  call void @llvm.lifetime.start.p0(i64 4, ptr %10) #6
  %17 = load ptr, ptr %6, align 8, !tbaa !9
  call void @clearerr(ptr noundef %17) #6
  %18 = load i32, ptr %8, align 4, !tbaa !14
  %19 = icmp eq i32 %18, 0
  br i1 %19, label %20, label %26

20:                                               ; preds = %3
  %21 = load ptr, ptr %5, align 8, !tbaa !4
  %22 = load ptr, ptr %6, align 8, !tbaa !9
  %23 = call i32 @read_line(ptr noundef %21, ptr noundef %22)
  store i32 %23, ptr %9, align 4, !tbaa !14
  %24 = load i32, ptr %7, align 4, !tbaa !14
  %25 = add nsw i32 %24, 1
  store i32 %25, ptr %10, align 4, !tbaa !14
  br label %108

26:                                               ; preds = %3
  %27 = load ptr, ptr %5, align 8, !tbaa !4
  %28 = load i32, ptr %8, align 4, !tbaa !14
  %29 = add nsw i32 %28, 20
  call void @luaL_checkstack(ptr noundef %27, i32 noundef %29, ptr noundef @.str.21)
  store i32 1, ptr %9, align 4, !tbaa !14
  %30 = load i32, ptr %7, align 4, !tbaa !14
  store i32 %30, ptr %10, align 4, !tbaa !14
  br label %31

31:                                               ; preds = %104, %26
  %32 = load i32, ptr %8, align 4, !tbaa !14
  %33 = add nsw i32 %32, -1
  store i32 %33, ptr %8, align 4, !tbaa !14
  %34 = icmp ne i32 %32, 0
  br i1 %34, label %35, label %38

35:                                               ; preds = %31
  %36 = load i32, ptr %9, align 4, !tbaa !14
  %37 = icmp ne i32 %36, 0
  br label %38

38:                                               ; preds = %35, %31
  %39 = phi i1 [ false, %31 ], [ %37, %35 ]
  br i1 %39, label %40, label %107

40:                                               ; preds = %38
  %41 = load ptr, ptr %5, align 8, !tbaa !4
  %42 = load i32, ptr %10, align 4, !tbaa !14
  %43 = call i32 @lua_type(ptr noundef %41, i32 noundef %42)
  %44 = icmp eq i32 %43, 3
  br i1 %44, label %45, label %62

45:                                               ; preds = %40
  call void @llvm.lifetime.start.p0(i64 8, ptr %11) #6
  %46 = load ptr, ptr %5, align 8, !tbaa !4
  %47 = load i32, ptr %10, align 4, !tbaa !14
  %48 = call i64 @lua_tointeger(ptr noundef %46, i32 noundef %47)
  store i64 %48, ptr %11, align 8, !tbaa !18
  %49 = load i64, ptr %11, align 8, !tbaa !18
  %50 = icmp eq i64 %49, 0
  br i1 %50, label %51, label %55

51:                                               ; preds = %45
  %52 = load ptr, ptr %5, align 8, !tbaa !4
  %53 = load ptr, ptr %6, align 8, !tbaa !9
  %54 = call i32 @test_eof(ptr noundef %52, ptr noundef %53)
  br label %60

55:                                               ; preds = %45
  %56 = load ptr, ptr %5, align 8, !tbaa !4
  %57 = load ptr, ptr %6, align 8, !tbaa !9
  %58 = load i64, ptr %11, align 8, !tbaa !18
  %59 = call i32 @read_chars(ptr noundef %56, ptr noundef %57, i64 noundef %58)
  br label %60

60:                                               ; preds = %55, %51
  %61 = phi i32 [ %54, %51 ], [ %59, %55 ]
  store i32 %61, ptr %9, align 4, !tbaa !14
  call void @llvm.lifetime.end.p0(i64 8, ptr %11) #6
  br label %103

62:                                               ; preds = %40
  call void @llvm.lifetime.start.p0(i64 8, ptr %12) #6
  %63 = load ptr, ptr %5, align 8, !tbaa !4
  %64 = load i32, ptr %10, align 4, !tbaa !14
  %65 = call ptr @lua_tolstring(ptr noundef %63, i32 noundef %64, ptr noundef null)
  store ptr %65, ptr %12, align 8, !tbaa !16
  %66 = load ptr, ptr %12, align 8, !tbaa !16
  %67 = icmp ne ptr %66, null
  br i1 %67, label %68, label %74

68:                                               ; preds = %62
  %69 = load ptr, ptr %12, align 8, !tbaa !16
  %70 = getelementptr inbounds i8, ptr %69, i64 0
  %71 = load i8, ptr %70, align 1, !tbaa !20
  %72 = sext i8 %71 to i32
  %73 = icmp eq i32 %72, 42
  br i1 %73, label %78, label %74

74:                                               ; preds = %68, %62
  %75 = load ptr, ptr %5, align 8, !tbaa !4
  %76 = load i32, ptr %10, align 4, !tbaa !14
  %77 = call i32 @luaL_argerror(ptr noundef %75, i32 noundef %76, ptr noundef @.str.22)
  br label %78

78:                                               ; preds = %74, %68
  %79 = load ptr, ptr %12, align 8, !tbaa !16
  %80 = getelementptr inbounds i8, ptr %79, i64 1
  %81 = load i8, ptr %80, align 1, !tbaa !20
  %82 = sext i8 %81 to i32
  switch i32 %82, label %95 [
    i32 110, label %83
    i32 108, label %87
    i32 97, label %91
  ]

83:                                               ; preds = %78
  %84 = load ptr, ptr %5, align 8, !tbaa !4
  %85 = load ptr, ptr %6, align 8, !tbaa !9
  %86 = call i32 @read_number(ptr noundef %84, ptr noundef %85)
  store i32 %86, ptr %9, align 4, !tbaa !14
  br label %99

87:                                               ; preds = %78
  %88 = load ptr, ptr %5, align 8, !tbaa !4
  %89 = load ptr, ptr %6, align 8, !tbaa !9
  %90 = call i32 @read_line(ptr noundef %88, ptr noundef %89)
  store i32 %90, ptr %9, align 4, !tbaa !14
  br label %99

91:                                               ; preds = %78
  %92 = load ptr, ptr %5, align 8, !tbaa !4
  %93 = load ptr, ptr %6, align 8, !tbaa !9
  %94 = call i32 @read_chars(ptr noundef %92, ptr noundef %93, i64 noundef -1)
  store i32 1, ptr %9, align 4, !tbaa !14
  br label %99

95:                                               ; preds = %78
  %96 = load ptr, ptr %5, align 8, !tbaa !4
  %97 = load i32, ptr %10, align 4, !tbaa !14
  %98 = call i32 @luaL_argerror(ptr noundef %96, i32 noundef %97, ptr noundef @.str.23)
  store i32 %98, ptr %4, align 4
  store i32 1, ptr %13, align 4
  br label %100

99:                                               ; preds = %91, %87, %83
  store i32 0, ptr %13, align 4
  br label %100

100:                                              ; preds = %99, %95
  call void @llvm.lifetime.end.p0(i64 8, ptr %12) #6
  %101 = load i32, ptr %13, align 4
  switch i32 %101, label %125 [
    i32 0, label %102
  ]

102:                                              ; preds = %100
  br label %103

103:                                              ; preds = %102, %60
  br label %104

104:                                              ; preds = %103
  %105 = load i32, ptr %10, align 4, !tbaa !14
  %106 = add nsw i32 %105, 1
  store i32 %106, ptr %10, align 4, !tbaa !14
  br label %31, !llvm.loop !23

107:                                              ; preds = %38
  br label %108

108:                                              ; preds = %107, %20
  %109 = load ptr, ptr %6, align 8, !tbaa !9
  %110 = call i32 @ferror(ptr noundef %109) #6
  %111 = icmp ne i32 %110, 0
  br i1 %111, label %112, label %115

112:                                              ; preds = %108
  %113 = load ptr, ptr %5, align 8, !tbaa !4
  %114 = call i32 @pushresult(ptr noundef %113, i32 noundef 0, ptr noundef null)
  store i32 %114, ptr %4, align 4
  store i32 1, ptr %13, align 4
  br label %125

115:                                              ; preds = %108
  %116 = load i32, ptr %9, align 4, !tbaa !14
  %117 = icmp ne i32 %116, 0
  br i1 %117, label %121, label %118

118:                                              ; preds = %115
  %119 = load ptr, ptr %5, align 8, !tbaa !4
  call void @lua_settop(ptr noundef %119, i32 noundef -2)
  %120 = load ptr, ptr %5, align 8, !tbaa !4
  call void @lua_pushnil(ptr noundef %120)
  br label %121

121:                                              ; preds = %118, %115
  %122 = load i32, ptr %10, align 4, !tbaa !14
  %123 = load i32, ptr %7, align 4, !tbaa !14
  %124 = sub nsw i32 %122, %123
  store i32 %124, ptr %4, align 4
  store i32 1, ptr %13, align 4
  br label %125

125:                                              ; preds = %121, %112, %100
  call void @llvm.lifetime.end.p0(i64 4, ptr %10) #6
  call void @llvm.lifetime.end.p0(i64 4, ptr %9) #6
  call void @llvm.lifetime.end.p0(i64 4, ptr %8) #6
  %126 = load i32, ptr %4, align 4
  ret i32 %126
}