; Function Attrs: nounwind uwtable
define internal fastcc i32 @g_read(ptr noundef %0, ptr noundef %1, i32 noundef range(i32 1, 3) %2) unnamed_addr #0 {
  %4 = alloca %struct.luaL_Buffer, align 8
  %5 = alloca double, align 8
  %6 = alloca %struct.luaL_Buffer, align 8
  %7 = tail call i32 @lua_gettop(ptr noundef %0) #9
  tail call void @clearerr(ptr noundef %1) #9
  %8 = icmp eq i32 %7, 1
  br i1 %8, label %9, label %12

9:                                                ; preds = %3
  %10 = tail call fastcc i32 @read_line(ptr noundef %0, ptr noundef %1)
  %11 = add nuw nsw i32 %2, 1
  br label %.loopexit

12:                                               ; preds = %3
  %13 = add nsw i32 %7, 19
  tail call void @luaL_checkstack(ptr noundef %0, i32 noundef %13, ptr noundef nonnull @.str.21) #9
  %14 = add nsw i32 %7, -2
  br label %15

15:                                               ; preds = %12, %.thread
  %16 = phi i32 [ %14, %12 ], [ %79, %.thread ]
  %.14870 = phi i32 [ %2, %12 ], [ %78, %.thread ]
  %17 = call i32 @lua_type(ptr noundef %0, i32 noundef %.14870) #9
  %18 = icmp eq i32 %17, 3
  br i1 %18, label %19, label %44

19:                                               ; preds = %15
  %20 = call i64 @lua_tointeger(ptr noundef %0, i32 noundef %.14870) #9
  %21 = icmp eq i64 %20, 0
  br i1 %21, label %22, label %27

22:                                               ; preds = %19
  %23 = call i32 @getc(ptr noundef %1)
  %24 = call i32 @ungetc(i32 noundef %23, ptr noundef %1)
  call void @lua_pushlstring(ptr noundef %0, ptr noundef null, i64 noundef 0) #9
  %25 = icmp ne i32 %23, -1
  %26 = zext i1 %25 to i32
  br label %.thread

27:                                               ; preds = %19
  call void @llvm.lifetime.start.p0(i64 8216, ptr nonnull %6) #9
  call void @luaL_buffinit(ptr noundef %0, ptr noundef nonnull %6) #9
  br label %28

28:                                               ; preds = %28, %27
  %.014.i = phi i64 [ 8192, %27 ], [ %spec.select.i, %28 ]
  %.0.i = phi i64 [ %20, %27 ], [ %33, %28 ]
  %29 = call ptr @luaL_prepbuffer(ptr noundef nonnull %6) #9
  %spec.select.i = call i64 @llvm.umin.i64(i64 %.014.i, i64 %.0.i)
  %30 = call i64 @fread(ptr noundef %29, i64 noundef 1, i64 noundef %spec.select.i, ptr noundef %1)
  %31 = load ptr, ptr %6, align 8, !tbaa !12
  %32 = getelementptr inbounds nuw i8, ptr %31, i64 %30
  store ptr %32, ptr %6, align 8, !tbaa !12
  %33 = sub i64 %.0.i, %30
  %34 = icmp ne i64 %33, 0
  %35 = icmp eq i64 %30, %spec.select.i
  %36 = and i1 %35, %34
  br i1 %36, label %28, label %37, !llvm.loop !16

37:                                               ; preds = %28
  call void @luaL_pushresult(ptr noundef nonnull %6) #9
  %38 = icmp eq i64 %33, 0
  br i1 %38, label %read_chars.exit, label %39

39:                                               ; preds = %37
  %40 = call i64 @lua_objlen(ptr noundef %0, i32 noundef -1) #9
  %41 = icmp ne i64 %40, 0
  %42 = zext i1 %41 to i32
  br label %read_chars.exit

read_chars.exit:                                  ; preds = %37, %39
  %43 = phi i32 [ 1, %37 ], [ %42, %39 ]
  call void @llvm.lifetime.end.p0(i64 8216, ptr nonnull %6) #9
  br label %.thread

44:                                               ; preds = %15
  %45 = call ptr @lua_tolstring(ptr noundef %0, i32 noundef %.14870, ptr noundef null) #9
  %.not = icmp eq ptr %45, null
  br i1 %.not, label %49, label %46

46:                                               ; preds = %44
  %47 = load i8, ptr %45, align 1, !tbaa !11
  %48 = icmp eq i8 %47, 42
  br i1 %48, label %51, label %49

49:                                               ; preds = %46, %44
  %50 = call i32 @luaL_argerror(ptr noundef %0, i32 noundef %.14870, ptr noundef nonnull @.str.22) #9
  br label %51

51:                                               ; preds = %49, %46
  %52 = getelementptr inbounds nuw i8, ptr %45, i64 1
  %53 = load i8, ptr %52, align 1, !tbaa !11
  switch i8 %53, label %76 [
    i8 110, label %54
    i8 108, label %60
    i8 97, label %62
  ]

54:                                               ; preds = %51
  call void @llvm.lifetime.start.p0(i64 8, ptr nonnull %5) #9
  %55 = call i32 (ptr, ptr, ...) @__isoc99_fscanf(ptr noundef %1, ptr noundef nonnull @.str.24, ptr noundef nonnull %5) #9
  %56 = icmp eq i32 %55, 1
  br i1 %56, label %57, label %59

57:                                               ; preds = %54
  %58 = load double, ptr %5, align 8, !tbaa !18
  call void @lua_pushnumber(ptr noundef %0, double noundef %58) #9
  br label %read_number.exit

59:                                               ; preds = %54
  call void @lua_pushnil(ptr noundef %0) #9
  br label %read_number.exit

read_number.exit:                                 ; preds = %57, %59
  %.0.i58 = phi i32 [ 1, %57 ], [ 0, %59 ]
  call void @llvm.lifetime.end.p0(i64 8, ptr nonnull %5) #9
  br label %.thread

60:                                               ; preds = %51
  %61 = call fastcc i32 @read_line(ptr noundef %0, ptr noundef %1)
  br label %.thread

62:                                               ; preds = %51
  call void @llvm.lifetime.start.p0(i64 8216, ptr nonnull %4) #9
  call void @luaL_buffinit(ptr noundef %0, ptr noundef nonnull %4) #9
  br label %63

63:                                               ; preds = %63, %62
  %.014.i59 = phi i64 [ 8192, %62 ], [ %spec.select.i61, %63 ]
  %.0.i60 = phi i64 [ -1, %62 ], [ %68, %63 ]
  %64 = call ptr @luaL_prepbuffer(ptr noundef nonnull %4) #9
  %spec.select.i61 = call i64 @llvm.umin.i64(i64 %.014.i59, i64 %.0.i60)
  %65 = call i64 @fread(ptr noundef %64, i64 noundef 1, i64 noundef %spec.select.i61, ptr noundef %1)
  %66 = load ptr, ptr %4, align 8, !tbaa !12
  %67 = getelementptr inbounds nuw i8, ptr %66, i64 %65
  store ptr %67, ptr %4, align 8, !tbaa !12
  %68 = sub i64 %.0.i60, %65
  %69 = icmp ne i64 %68, 0
  %70 = icmp eq i64 %65, %spec.select.i61
  %71 = and i1 %70, %69
  br i1 %71, label %63, label %72, !llvm.loop !16

72:                                               ; preds = %63
  call void @luaL_pushresult(ptr noundef nonnull %4) #9
  %73 = icmp eq i64 %68, 0
  br i1 %73, label %read_chars.exit62, label %74

74:                                               ; preds = %72
  %75 = call i64 @lua_objlen(ptr noundef %0, i32 noundef -1) #9
  br label %read_chars.exit62

read_chars.exit62:                                ; preds = %72, %74
  call void @llvm.lifetime.end.p0(i64 8216, ptr nonnull %4) #9
  br label %.thread

76:                                               ; preds = %51
  %77 = call i32 @luaL_argerror(ptr noundef %0, i32 noundef %.14870, ptr noundef nonnull @.str.23) #9
  br label %94

.thread:                                          ; preds = %read_number.exit, %60, %read_chars.exit62, %22, %read_chars.exit
  %.4 = phi i32 [ %26, %22 ], [ %43, %read_chars.exit ], [ %.0.i58, %read_number.exit ], [ %61, %60 ], [ 1, %read_chars.exit62 ]
  %78 = add nuw nsw i32 %.14870, 1
  %79 = add nsw i32 %16, -1
  %80 = icmp ne i32 %16, 0
  %81 = icmp ne i32 %.4, 0
  %82 = select i1 %80, i1 %81, i1 false
  br i1 %82, label %15, label %.loopexit, !llvm.loop !20

.loopexit:                                        ; preds = %.thread, %9
  %.049 = phi i32 [ %10, %9 ], [ %.4, %.thread ]
  %.047 = phi i32 [ %11, %9 ], [ %78, %.thread ]
  %83 = call i32 @ferror(ptr noundef %1) #9
  %.not56 = icmp eq i32 %83, 0
  br i1 %.not56, label %90, label %84

84:                                               ; preds = %.loopexit
  %85 = tail call ptr @__errno_location() #10
  %86 = load i32, ptr %85, align 4, !tbaa !9
  call void @lua_pushnil(ptr noundef %0) #9
  %87 = call ptr @strerror(i32 noundef %86) #9
  %88 = call ptr (ptr, ptr, ...) @lua_pushfstring(ptr noundef %0, ptr noundef nonnull @.str.19, ptr noundef %87) #9
  %89 = sext i32 %86 to i64
  call void @lua_pushinteger(ptr noundef %0, i64 noundef %89) #9
  br label %94

90:                                               ; preds = %.loopexit
  %.not57 = icmp eq i32 %.049, 0
  br i1 %.not57, label %91, label %92

91:                                               ; preds = %90
  call void @lua_settop(ptr noundef %0, i32 noundef -2) #9
  call void @lua_pushnil(ptr noundef %0) #9
  br label %92

92:                                               ; preds = %91, %90
  %93 = sub nsw i32 %.047, %2
  br label %94

94:                                               ; preds = %76, %92, %84
  %.2 = phi i32 [ 3, %84 ], [ %93, %92 ], [ %77, %76 ]
  ret i32 %.2
}